target datalayout = "e-m:e-p270:32:32-p271:32:32-p272:64:64-i64:64-i128:128-f80:128-n8:16:32:64-S128"
target triple = "x86_64-pc-linux-gnu"

%struct.OSQPSolver = type { ptr, ptr, ptr, ptr }
%struct.OSQPWorkspace_ = type { ptr, ptr, ptr, ptr, ptr, ptr, ptr, ptr, ptr, ptr, ptr, ptr, ptr, ptr, ptr, ptr, ptr, ptr, ptr, ptr, ptr, ptr, ptr, ptr, ptr, ptr, double, double, double, ptr, i64, i64, i64, i64, ptr }
%struct.OSQPScaling = type { double, ptr, ptr, double, ptr, ptr }

; Function Attrs: nounwind uwtable
define i64 @unscale_PA(ptr noundef %0, ptr noundef %1, ptr noundef %2) #0 {
  %4 = alloca ptr, align 8
  %5 = alloca ptr, align 8
  %6 = alloca ptr, align 8
  store ptr %0, ptr %4, align 8
  store ptr %1, ptr %5, align 8
  store ptr %2, ptr %6, align 8
  %7 = load ptr, ptr %5, align 8
  %8 = load ptr, ptr %4, align 8
  %9 = getelementptr inbounds %struct.OSQPSolver, ptr %8, i32 0, i32 3
  %10 = load ptr, ptr %9, align 8
  %11 = getelementptr inbounds %struct.OSQPWorkspace_, ptr %10, i32 0, i32 25
  %12 = load ptr, ptr %11, align 8
  %13 = getelementptr inbounds %struct.OSQPScaling, ptr %12, i32 0, i32 3
  %14 = load double, ptr %13, align 8
  call void @OSQPMatrix_mult_scalar(ptr noundef %7, double noundef %14)
  %15 = load ptr, ptr %5, align 8
  %16 = load ptr, ptr %4, align 8
  %17 = getelementptr inbounds %struct.OSQPSolver, ptr %16, i32 0, i32 3
  %18 = load ptr, ptr %17, align 8
  %19 = getelementptr inbounds %struct.OSQPWorkspace_, ptr %18, i32 0, i32 25
  %20 = load ptr, ptr %19, align 8
  %21 = getelementptr inbounds %struct.OSQPScaling, ptr %20, i32 0, i32 4
  %22 = load ptr, ptr %21, align 8
  call void @OSQPMatrix_lmult_diag(ptr noundef %15, ptr noundef %22)
  %23 = load ptr, ptr %5, align 8
  %24 = load ptr, ptr %4, align 8
  %25 = getelementptr inbounds %struct.OSQPSolver, ptr %24, i32 0, i32 3
  %26 = load ptr, ptr %25, align 8
  %27 = getelementptr inbounds %struct.OSQPWorkspace_, ptr %26, i32 0, i32 25
  %28 = load ptr, ptr %27, align 8
  %29 = getelementptr inbounds %struct.OSQPScaling, ptr %28, i32 0, i32 4
  %30 = load ptr, ptr %29, align 8
  call void @OSQPMatrix_rmult_diag(ptr noundef %23, ptr noundef %30)
  %31 = load ptr, ptr %6, align 8
  %32 = load ptr, ptr %4, align 8
  %33 = getelementptr inbounds %struct.OSQPSolver, ptr %32, i32 0, i32 3
  %34 = load ptr, ptr %33, align 8
  %35 = getelementptr inbounds %struct.OSQPWorkspace_, ptr %34, i32 0, i32 25
  %36 = load ptr, ptr %35, align 8
  %37 = getelementptr inbounds %struct.OSQPScaling, ptr %36, i32 0, i32 5
  %38 = load ptr, ptr %37, align 8
  call void @OSQPMatrix_lmult_diag(ptr noundef %31, ptr noundef %38)
  %39 = load ptr, ptr %6, align 8
  %40 = load ptr, ptr %4, align 8
  %41 = getelementptr inbounds %struct.OSQPSolver, ptr %40, i32 0, i32 3
  %42 = load ptr, ptr %41, align 8
  %43 = getelementptr inbounds %struct.OSQPWorkspace_, ptr %42, i32 0, i32 25
  %44 = load ptr, ptr %43, align 8
  %45 = getelementptr inbounds %struct.OSQPScaling, ptr %44, i32 0, i32 4
  %46 = load ptr, ptr %45, align 8
  call void @OSQPMatrix_rmult_diag(ptr noundef %39, ptr noundef %46)
  ret i64 0
}