; Function Attrs: nounwind uwtable
define noundef i64 @unscale_PA(ptr nocapture noundef readonly %0, ptr noundef %1, ptr noundef %2) local_unnamed_addr #0 {
  %4 = getelementptr inbounds i8, ptr %0, i64 24
  %5 = load ptr, ptr %4, align 8
  %6 = getelementptr inbounds i8, ptr %5, i64 200
  %7 = load ptr, ptr %6, align 8
  %8 = getelementptr inbounds i8, ptr %7, i64 24
  %9 = load double, ptr %8, align 8
  tail call void @OSQPMatrix_mult_scalar(ptr noundef %1, double noundef %9) #6
  %10 = load ptr, ptr %4, align 8
  %11 = getelementptr inbounds i8, ptr %10, i64 200
  %12 = load ptr, ptr %11, align 8
  %13 = getelementptr inbounds i8, ptr %12, i64 32
  %14 = load ptr, ptr %13, align 8
  tail call void @OSQPMatrix_lmult_diag(ptr noundef %1, ptr noundef %14) #6
  %15 = load ptr, ptr %4, align 8
  %16 = getelementptr inbounds i8, ptr %15, i64 200
  %17 = load ptr, ptr %16, align 8
  %18 = getelementptr inbounds i8, ptr %17, i64 32
  %19 = load ptr, ptr %18, align 8
  tail call void @OSQPMatrix_rmult_diag(ptr noundef %1, ptr noundef %19) #6
  %20 = load ptr, ptr %4, align 8
  %21 = getelementptr inbounds i8, ptr %20, i64 200
  %22 = load ptr, ptr %21, align 8
  %23 = getelementptr inbounds i8, ptr %22, i64 40
  %24 = load ptr, ptr %23, align 8
  tail call void @OSQPMatrix_lmult_diag(ptr noundef %2, ptr noundef %24) #6
  %25 = load ptr, ptr %4, align 8
  %26 = getelementptr inbounds i8, ptr %25, i64 200
  %27 = load ptr, ptr %26, align 8
  %28 = getelementptr inbounds i8, ptr %27, i64 32
  %29 = load ptr, ptr %28, align 8
  tail call void @OSQPMatrix_rmult_diag(ptr noundef %2, ptr noundef %29) #6
  ret i64 0
}